target datalayout = "e-m:e-p270:32:32-p271:32:32-p272:64:64-i64:64-i128:128-f80:128-n8:16:32:64-S128"
target triple = "x86_64-pc-linux-gnu"

%struct.slurm_step_id_msg = type { i64, i32, i32, i32 }
%struct.sstat_parameters_t = type { i32, ptr, i32, ptr, i32, i32, i8, i32, i32 }
%struct.slurm_selected_step_t = type { ptr, i32, i32, %struct.slurm_step_id_msg }
%struct.job_step_info_response_msg = type { i64, i32, ptr, ptr }
%struct.job_step_info_t = type { i32, i32, ptr, ptr, ptr, i32, i32, i32, ptr, ptr, ptr, ptr, ptr, ptr, i32, i32, ptr, ptr, i64, ptr, i32, i64, i16, i32, %struct.slurm_step_id_msg, ptr, i32, i32, ptr, ptr, ptr, ptr, ptr, ptr, ptr, i32 }

@print_fields_list = dso_local global ptr null, align 8
@print_fields_itr = dso_local global ptr null, align 8
@params = dso_local global %struct.sstat_parameters_t zeroinitializer, align 8
@__const.main.step_id = private unnamed_addr constant { i64, i32, i32, i32, [4 x i8] } { i64 0, i32 0, i32 -2, i32 -2, [4 x i8] zeroinitializer }, align 8
@.str.58 = private unnamed_addr constant [37 x i8] c"You didn't give me any jobs to stat.\00", align 1
@.str.59 = private unnamed_addr constant [30 x i8] c"couldn't get steps for job %u\00", align 1
@.str.60 = private unnamed_addr constant [28 x i8] c"No steps running for job %u\00", align 1
@.str.61 = private unnamed_addr constant [23 x i8] c"%ps not found running.\00", align 1

; Function Attrs: nounwind uwtable
define dso_local i32 @main(i32 noundef %0, ptr noundef %1) #1 {
  %3 = alloca i32, align 4
  %4 = alloca i32, align 4
  %5 = alloca ptr, align 8
  %6 = alloca ptr, align 8
  %7 = alloca %struct.slurm_step_id_msg, align 8
  %8 = alloca ptr, align 8
  %9 = alloca i32, align 4
  %10 = alloca ptr, align 8
  %11 = alloca i32, align 4
  store i32 0, ptr %3, align 4
  store i32 %0, ptr %4, align 4
  store ptr %1, ptr %5, align 8
  call void @llvm.lifetime.start.p0(i64 8, ptr %6) #5
  store ptr null, ptr %6, align 8
  call void @llvm.lifetime.start.p0(i64 24, ptr %7) #5
  call void @llvm.memcpy.p0.p0.i64(ptr align 8 %7, ptr align 8 @__const.main.step_id, i64 24, i1 false)
  call void @llvm.lifetime.start.p0(i64 8, ptr %8) #5
  store ptr null, ptr %8, align 8
  call void @slurm_init(ptr noundef null)
  %12 = call ptr @list_create(ptr noundef null)
  store ptr %12, ptr @print_fields_list, align 8
  %13 = load ptr, ptr @print_fields_list, align 8
  %14 = call ptr @list_iterator_create(ptr noundef %13)
  store ptr %14, ptr @print_fields_itr, align 8
  %15 = load i32, ptr %4, align 4
  %16 = load ptr, ptr %5, align 8
  call void @parse_command_line(i32 noundef %15, ptr noundef %16)
  %17 = load ptr, ptr getelementptr inbounds nuw (%struct.sstat_parameters_t, ptr @params, i32 0, i32 3), align 8
  %18 = icmp ne ptr %17, null
  br i1 %18, label %19, label %23

19:                                               ; preds = %2
  %20 = load ptr, ptr getelementptr inbounds nuw (%struct.sstat_parameters_t, ptr @params, i32 0, i32 3), align 8
  %21 = call i32 @list_count(ptr noundef %20)
  %22 = icmp ne i32 %21, 0
  br i1 %22, label %25, label %23

23:                                               ; preds = %19, %2
  %24 = call i32 (ptr, ...) @error(ptr noundef @.str.58)
  store i32 1, ptr %3, align 4
  store i32 1, ptr %9, align 4
  br label %207

25:                                               ; preds = %19
  %26 = load ptr, ptr @print_fields_list, align 8
  call void @print_fields_header(ptr noundef %26)
  %27 = load ptr, ptr getelementptr inbounds nuw (%struct.sstat_parameters_t, ptr @params, i32 0, i32 3), align 8
  %28 = call ptr @list_iterator_create(ptr noundef %27)
  store ptr %28, ptr %6, align 8
  br label %29

29:                                               ; preds = %183, %181, %25
  %30 = load ptr, ptr %6, align 8
  %31 = call ptr @list_next(ptr noundef %30)
  store ptr %31, ptr %8, align 8
  %32 = icmp ne ptr %31, null
  br i1 %32, label %33, label %184

33:                                               ; preds = %29
  call void @llvm.lifetime.start.p0(i64 8, ptr %10) #5
  store ptr null, ptr %10, align 8
  %34 = load ptr, ptr %8, align 8
  %35 = getelementptr inbounds nuw %struct.slurm_selected_step_t, ptr %34, i32 0, i32 3
  call void @llvm.memcpy.p0.p0.i64(ptr align 8 %7, ptr align 8 %35, i64 24, i1 false)
  %36 = getelementptr inbounds nuw %struct.slurm_step_id_msg, ptr %7, i32 0, i32 1
  %37 = load i32, ptr %36, align 8
  %38 = getelementptr inbounds nuw %struct.slurm_step_id_msg, ptr %7, i32 0, i32 3
  %39 = load i32, ptr %38, align 8
  %40 = call i32 @slurm_get_job_steps(i64 noundef 0, i32 noundef %37, i32 noundef %39, ptr noundef %10, i16 noundef zeroext 1)
  %41 = icmp ne i32 %40, 0
  br i1 %41, label %42, label %48

42:                                               ; preds = %33
  %43 = load ptr, ptr %8, align 8
  %44 = getelementptr inbounds nuw %struct.slurm_selected_step_t, ptr %43, i32 0, i32 3
  %45 = getelementptr inbounds nuw %struct.slurm_step_id_msg, ptr %44, i32 0, i32 1
  %46 = load i32, ptr %45, align 8
  %47 = call i32 (ptr, ...) @error(ptr noundef @.str.59, i32 noundef %46)
  store i32 2, ptr %9, align 4
  br label %181, !llvm.loop !14

48:                                               ; preds = %33
  %49 = load ptr, ptr %10, align 8
  %50 = getelementptr inbounds nuw %struct.job_step_info_response_msg, ptr %49, i32 0, i32 1
  %51 = load i32, ptr %50, align 8
  %52 = icmp ne i32 %51, 0
  br i1 %52, label %68, label %53

53:                                               ; preds = %48
  %54 = getelementptr inbounds nuw %struct.slurm_step_id_msg, ptr %7, i32 0, i32 3
  %55 = load i32, ptr %54, align 8
  %56 = icmp eq i32 %55, -2
  br i1 %56, label %57, label %63

57:                                               ; preds = %53
  %58 = load ptr, ptr %8, align 8
  %59 = getelementptr inbounds nuw %struct.slurm_selected_step_t, ptr %58, i32 0, i32 3
  %60 = getelementptr inbounds nuw %struct.slurm_step_id_msg, ptr %59, i32 0, i32 1
  %61 = load i32, ptr %60, align 8
  %62 = call i32 (ptr, ...) @error(ptr noundef @.str.60, i32 noundef %61)
  br label %67

63:                                               ; preds = %53
  %64 = load ptr, ptr %8, align 8
  %65 = getelementptr inbounds nuw %struct.slurm_selected_step_t, ptr %64, i32 0, i32 3
  %66 = call i32 (ptr, ...) @error(ptr noundef @.str.61, ptr noundef %65)
  br label %67

67:                                               ; preds = %63, %57
  store i32 2, ptr %9, align 4
  br label %181, !llvm.loop !14

68:                                               ; preds = %48
  br label %69

69:                                               ; preds = %68
  call void @llvm.lifetime.start.p0(i64 4, ptr %11) #5
  store i32 0, ptr %11, align 4
  br label %70

70:                                               ; preds = %177, %69
  %71 = load i32, ptr %11, align 4
  %72 = load ptr, ptr %10, align 8
  %73 = getelementptr inbounds nuw %struct.job_step_info_response_msg, ptr %72, i32 0, i32 1
  %74 = load i32, ptr %73, align 8
  %75 = icmp ult i32 %71, %74
  br i1 %75, label %77, label %76

76:                                               ; preds = %70
  store i32 4, ptr %9, align 4
  call void @llvm.lifetime.end.p0(i64 4, ptr %11) #5
  br label %180

77:                                               ; preds = %70
  %78 = getelementptr inbounds nuw %struct.slurm_step_id_msg, ptr %7, i32 0, i32 3
  %79 = load i32, ptr %78, align 8
  %80 = icmp eq i32 %79, -2
  br i1 %80, label %81, label %107

81:                                               ; preds = %77
  %82 = load i32, ptr @params, align 8
  %83 = icmp ne i32 %82, 0
  br i1 %83, label %96, label %84

84:                                               ; preds = %81
  %85 = load ptr, ptr %10, align 8
  %86 = getelementptr inbounds nuw %struct.job_step_info_response_msg, ptr %85, i32 0, i32 2
  %87 = load ptr, ptr %86, align 8
  %88 = load i32, ptr %11, align 4
  %89 = sext i32 %88 to i64
  %90 = getelementptr inbounds %struct.job_step_info_t, ptr %87, i64 %89
  %91 = getelementptr inbounds nuw %struct.job_step_info_t, ptr %90, i32 0, i32 24
  %92 = getelementptr inbounds nuw %struct.slurm_step_id_msg, ptr %91, i32 0, i32 3
  %93 = load i32, ptr %92, align 8
  %94 = icmp ugt i32 %93, -16
  br i1 %94, label %95, label %96

95:                                               ; preds = %84
  br label %177

96:                                               ; preds = %84, %81
  %97 = load ptr, ptr %10, align 8
  %98 = getelementptr inbounds nuw %struct.job_step_info_response_msg, ptr %97, i32 0, i32 2
  %99 = load ptr, ptr %98, align 8
  %100 = load i32, ptr %11, align 4
  %101 = sext i32 %100 to i64
  %102 = getelementptr inbounds %struct.job_step_info_t, ptr %99, i64 %101
  %103 = getelementptr inbounds nuw %struct.job_step_info_t, ptr %102, i32 0, i32 24
  %104 = getelementptr inbounds nuw %struct.slurm_step_id_msg, ptr %103, i32 0, i32 3
  %105 = load i32, ptr %104, align 8
  %106 = getelementptr inbounds nuw %struct.slurm_step_id_msg, ptr %7, i32 0, i32 3
  store i32 %105, ptr %106, align 8
  br label %107

107:                                              ; preds = %96, %77
  %108 = load i32, ptr @params, align 8
  %109 = icmp ne i32 %108, 0
  br i1 %109, label %120, label %110

110:                                              ; preds = %107
  %111 = load ptr, ptr %10, align 8
  %112 = getelementptr inbounds nuw %struct.job_step_info_response_msg, ptr %111, i32 0, i32 2
  %113 = load ptr, ptr %112, align 8
  %114 = load i32, ptr %11, align 4
  %115 = sext i32 %114 to i64
  %116 = getelementptr inbounds %struct.job_step_info_t, ptr %113, i64 %115
  %117 = getelementptr inbounds nuw %struct.job_step_info_t, ptr %116, i32 0, i32 24
  %118 = call zeroext i1 @verify_step_id(ptr noundef %117, ptr noundef %7)
  br i1 %118, label %120, label %119

119:                                              ; preds = %110
  br label %177

120:                                              ; preds = %110, %107
  %121 = load ptr, ptr %10, align 8
  %122 = getelementptr inbounds nuw %struct.job_step_info_response_msg, ptr %121, i32 0, i32 2
  %123 = load ptr, ptr %122, align 8
  %124 = load i32, ptr %11, align 4
  %125 = sext i32 %124 to i64
  %126 = getelementptr inbounds %struct.job_step_info_t, ptr %123, i64 %125
  %127 = getelementptr inbounds nuw %struct.job_step_info_t, ptr %126, i32 0, i32 24
  %128 = load ptr, ptr %10, align 8
  %129 = getelementptr inbounds nuw %struct.job_step_info_response_msg, ptr %128, i32 0, i32 2
  %130 = load ptr, ptr %129, align 8
  %131 = load i32, ptr %11, align 4
  %132 = sext i32 %131 to i64
  %133 = getelementptr inbounds %struct.job_step_info_t, ptr %130, i64 %132
  %134 = getelementptr inbounds nuw %struct.job_step_info_t, ptr %133, i32 0, i32 12
  %135 = load ptr, ptr %134, align 8
  %136 = load ptr, ptr %10, align 8
  %137 = getelementptr inbounds nuw %struct.job_step_info_response_msg, ptr %136, i32 0, i32 2
  %138 = load ptr, ptr %137, align 8
  %139 = load i32, ptr %11, align 4
  %140 = sext i32 %139 to i64
  %141 = getelementptr inbounds %struct.job_step_info_t, ptr %138, i64 %140
  %142 = getelementptr inbounds nuw %struct.job_step_info_t, ptr %141, i32 0, i32 5
  %143 = load i32, ptr %142, align 8
  %144 = load ptr, ptr %10, align 8
  %145 = getelementptr inbounds nuw %struct.job_step_info_response_msg, ptr %144, i32 0, i32 2
  %146 = load ptr, ptr %145, align 8
  %147 = load i32, ptr %11, align 4
  %148 = sext i32 %147 to i64
  %149 = getelementptr inbounds %struct.job_step_info_t, ptr %146, i64 %148
  %150 = getelementptr inbounds nuw %struct.job_step_info_t, ptr %149, i32 0, i32 6
  %151 = load i32, ptr %150, align 4
  %152 = load ptr, ptr %10, align 8
  %153 = getelementptr inbounds nuw %struct.job_step_info_response_msg, ptr %152, i32 0, i32 2
  %154 = load ptr, ptr %153, align 8
  %155 = load i32, ptr %11, align 4
  %156 = sext i32 %155 to i64
  %157 = getelementptr inbounds %struct.job_step_info_t, ptr %154, i64 %156
  %158 = getelementptr inbounds nuw %struct.job_step_info_t, ptr %157, i32 0, i32 7
  %159 = load i32, ptr %158, align 8
  %160 = load ptr, ptr %10, align 8
  %161 = getelementptr inbounds nuw %struct.job_step_info_response_msg, ptr %160, i32 0, i32 2
  %162 = load ptr, ptr %161, align 8
  %163 = load i32, ptr %11, align 4
  %164 = sext i32 %163 to i64
  %165 = getelementptr inbounds %struct.job_step_info_t, ptr %162, i64 %164
  %166 = getelementptr inbounds nuw %struct.job_step_info_t, ptr %165, i32 0, i32 22
  %167 = load i16, ptr %166, align 8
  %168 = load ptr, ptr %10, align 8
  %169 = getelementptr inbounds nuw %struct.job_step_info_response_msg, ptr %168, i32 0, i32 2
  %170 = load ptr, ptr %169, align 8
  %171 = load i32, ptr %11, align 4
  %172 = sext i32 %171 to i64
  %173 = getelementptr inbounds %struct.job_step_info_t, ptr %170, i64 %172
  %174 = getelementptr inbounds nuw %struct.job_step_info_t, ptr %173, i32 0, i32 29
  %175 = load ptr, ptr %174, align 8
  %176 = call i32 @_do_stat(ptr noundef %127, ptr noundef %135, i32 noundef %143, i32 noundef %151, i32 noundef %159, i16 noundef zeroext %167, ptr noundef %175)
  br label %177

177:                                              ; preds = %120, %119, %95
  %178 = load i32, ptr %11, align 4
  %179 = add nsw i32 %178, 1
  store i32 %179, ptr %11, align 4
  br label %70, !llvm.loop !15

180:                                              ; preds = %76
  store i32 0, ptr %9, align 4
  br label %181

181:                                              ; preds = %180, %67, %42
  call void @llvm.lifetime.end.p0(i64 8, ptr %10) #5
  %182 = load i32, ptr %9, align 4
  switch i32 %182, label %209 [
    i32 0, label %183
    i32 2, label %29
  ]

183:                                              ; preds = %181
  br label %29, !llvm.loop !14

184:                                              ; preds = %29
  %185 = load ptr, ptr %6, align 8
  call void @list_iterator_destroy(ptr noundef %185)
  call void @slurm_xfree(ptr noundef getelementptr inbounds nuw (%struct.sstat_parameters_t, ptr @params, i32 0, i32 1))
  br label %186

186:                                              ; preds = %184
  %187 = load ptr, ptr getelementptr inbounds nuw (%struct.sstat_parameters_t, ptr @params, i32 0, i32 3), align 8
  %188 = icmp ne ptr %187, null
  br i1 %188, label %189, label %191

189:                                              ; preds = %186
  %190 = load ptr, ptr getelementptr inbounds nuw (%struct.sstat_parameters_t, ptr @params, i32 0, i32 3), align 8
  call void @list_destroy(ptr noundef %190)
  br label %191

191:                                              ; preds = %189, %186
  store ptr null, ptr getelementptr inbounds nuw (%struct.sstat_parameters_t, ptr @params, i32 0, i32 3), align 8
  br label %192

192:                                              ; preds = %191
  br label %193

193:                                              ; preds = %192
  %194 = load ptr, ptr @print_fields_itr, align 8
  %195 = icmp ne ptr %194, null
  br i1 %195, label %196, label %198

196:                                              ; preds = %193
  %197 = load ptr, ptr @print_fields_itr, align 8
  call void @list_iterator_destroy(ptr noundef %197)
  br label %198

198:                                              ; preds = %196, %193
  br label %199

199:                                              ; preds = %198
  %200 = load ptr, ptr @print_fields_list, align 8
  %201 = icmp ne ptr %200, null
  br i1 %201, label %202, label %204

202:                                              ; preds = %199
  %203 = load ptr, ptr @print_fields_list, align 8
  call void @list_destroy(ptr noundef %203)
  br label %204

204:                                              ; preds = %202, %199
  store ptr null, ptr @print_fields_list, align 8
  br label %205

205:                                              ; preds = %204
  br label %206

206:                                              ; preds = %205
  store i32 0, ptr %3, align 4
  store i32 1, ptr %9, align 4
  br label %207

207:                                              ; preds = %206, %23
  call void @llvm.lifetime.end.p0(i64 8, ptr %8) #5
  call void @llvm.lifetime.end.p0(i64 24, ptr %7) #5
  call void @llvm.lifetime.end.p0(i64 8, ptr %6) #5
  %208 = load i32, ptr %3, align 4
  ret i32 %208

209:                                              ; preds = %181
  unreachable
}