; Function Attrs: nounwind uwtable
define dso_local range(i32 0, 2) i32 @main(i32 noundef %0, ptr noundef %1) local_unnamed_addr #1 {
  %3 = alloca %struct.slurm_step_id_msg, align 8
  %4 = alloca ptr, align 8
  call void @llvm.lifetime.start.p0(i64 24, ptr nonnull %3) #5
  call void @llvm.memcpy.p0.p0.i64(ptr noundef nonnull align 8 dereferenceable(24) %3, ptr noundef nonnull align 8 dereferenceable(24) @__const.main.step_id, i64 24, i1 false)
  tail call void @slurm_init(ptr noundef null) #5
  %5 = tail call ptr @list_create(ptr noundef null) #5
  store ptr %5, ptr @print_fields_list, align 8
  %6 = tail call ptr @list_iterator_create(ptr noundef %5) #5
  store ptr %6, ptr @print_fields_itr, align 8
  tail call void @parse_command_line(i32 noundef %0, ptr noundef %1) #5
  %7 = load ptr, ptr getelementptr inbounds nuw (i8, ptr @params, i64 24), align 8
  %.not = icmp eq ptr %7, null
  br i1 %.not, label %10, label %8

8:                                                ; preds = %2
  %9 = tail call i32 @list_count(ptr noundef nonnull %7) #5
  %.not26 = icmp eq i32 %9, 0
  br i1 %.not26, label %10, label %12

10:                                               ; preds = %8, %2
  %11 = tail call i32 (ptr, ...) @error(ptr noundef nonnull @.str.58) #5
  br label %91

12:                                               ; preds = %8
  %13 = load ptr, ptr @print_fields_list, align 8
  tail call void @print_fields_header(ptr noundef %13) #5
  %14 = load ptr, ptr getelementptr inbounds nuw (i8, ptr @params, i64 24), align 8
  %15 = tail call ptr @list_iterator_create(ptr noundef %14) #5
  %16 = tail call ptr @list_next(ptr noundef %15) #5
  %.not2736 = icmp eq ptr %16, null
  br i1 %.not2736, label %._crit_edge, label %.lr.ph37

.lr.ph37:                                         ; preds = %12
  %17 = getelementptr inbounds nuw i8, ptr %3, i64 8
  %18 = getelementptr inbounds nuw i8, ptr %3, i64 16
  br label %19

19:                                               ; preds = %.lr.ph37, %.loopexit
  %20 = phi ptr [ %16, %.lr.ph37 ], [ %81, %.loopexit ]
  call void @llvm.lifetime.start.p0(i64 8, ptr nonnull %4) #5
  store ptr null, ptr %4, align 8
  %21 = getelementptr inbounds nuw i8, ptr %20, i64 16
  call void @llvm.memcpy.p0.p0.i64(ptr noundef nonnull align 8 dereferenceable(24) %3, ptr noundef nonnull align 8 dereferenceable(24) %21, i64 24, i1 false)
  %22 = load i32, ptr %17, align 8
  %23 = load i32, ptr %18, align 8
  %24 = call i32 @slurm_get_job_steps(i64 noundef 0, i32 noundef %22, i32 noundef %23, ptr noundef nonnull %4, i16 noundef zeroext 1) #5
  %.not31 = icmp eq i32 %24, 0
  br i1 %.not31, label %29, label %25

25:                                               ; preds = %19
  %26 = getelementptr inbounds nuw i8, ptr %20, i64 24
  %27 = load i32, ptr %26, align 8
  %28 = call i32 (ptr, ...) @error(ptr noundef nonnull @.str.59, i32 noundef %27) #5
  br label %.loopexit, !llvm.loop !14

29:                                               ; preds = %19
  %30 = load ptr, ptr %4, align 8
  %31 = getelementptr inbounds nuw i8, ptr %30, i64 8
  %32 = load i32, ptr %31, align 8
  %.not32 = icmp eq i32 %32, 0
  br i1 %.not32, label %33, label %.lr.ph

33:                                               ; preds = %29
  %34 = load i32, ptr %18, align 8
  %35 = icmp eq i32 %34, -2
  br i1 %35, label %36, label %40

36:                                               ; preds = %33
  %37 = getelementptr inbounds nuw i8, ptr %20, i64 24
  %38 = load i32, ptr %37, align 8
  %39 = call i32 (ptr, ...) @error(ptr noundef nonnull @.str.60, i32 noundef %38) #5
  br label %.loopexit, !llvm.loop !14

40:                                               ; preds = %33
  %41 = call i32 (ptr, ...) @error(ptr noundef nonnull @.str.61, ptr noundef nonnull %21) #5
  br label %.loopexit, !llvm.loop !14

.lr.ph:                                           ; preds = %29, %75
  %42 = phi ptr [ %76, %75 ], [ %30, %29 ]
  %indvars.iv = phi i64 [ %indvars.iv.next, %75 ], [ 0, %29 ]
  %43 = load i32, ptr %18, align 8
  %44 = icmp eq i32 %43, -2
  %.pre43 = load i32, ptr @params, align 8
  br i1 %44, label %45, label %51

45:                                               ; preds = %.lr.ph
  %.not33 = icmp eq i32 %.pre43, 0
  %46 = getelementptr inbounds nuw i8, ptr %42, i64 16
  %47 = load ptr, ptr %46, align 8
  %48 = getelementptr inbounds nuw %struct.job_step_info_t, ptr %47, i64 %indvars.iv, i32 24, i32 3
  %49 = load i32, ptr %48, align 8
  %50 = icmp ugt i32 %49, -16
  %or.cond = select i1 %.not33, i1 %50, i1 false
  br i1 %or.cond, label %75, label %._crit_edge40

._crit_edge40:                                    ; preds = %45
  store i32 %49, ptr %18, align 8
  br label %51

51:                                               ; preds = %._crit_edge40, %.lr.ph
  %.not34 = icmp eq i32 %.pre43, 0
  br i1 %.not34, label %52, label %._crit_edge44

52:                                               ; preds = %51
  %53 = getelementptr inbounds nuw i8, ptr %42, i64 16
  %54 = load ptr, ptr %53, align 8
  %55 = getelementptr inbounds nuw %struct.job_step_info_t, ptr %54, i64 %indvars.iv, i32 24
  %56 = call zeroext i1 @verify_step_id(ptr noundef nonnull %55, ptr noundef nonnull %3) #5
  %.pre47 = load ptr, ptr %4, align 8
  br i1 %56, label %._crit_edge44, label %75

._crit_edge44:                                    ; preds = %52, %51
  %57 = phi ptr [ %42, %51 ], [ %.pre47, %52 ]
  %58 = getelementptr inbounds nuw i8, ptr %57, i64 16
  %59 = load ptr, ptr %58, align 8
  %60 = getelementptr inbounds nuw %struct.job_step_info_t, ptr %59, i64 %indvars.iv
  %61 = getelementptr inbounds nuw i8, ptr %60, i64 160
  %62 = getelementptr inbounds nuw i8, ptr %60, i64 80
  %63 = load ptr, ptr %62, align 8
  %64 = getelementptr inbounds nuw i8, ptr %60, i64 32
  %65 = load i32, ptr %64, align 8
  %66 = getelementptr inbounds nuw i8, ptr %60, i64 36
  %67 = load i32, ptr %66, align 4
  %68 = getelementptr inbounds nuw i8, ptr %60, i64 40
  %69 = load i32, ptr %68, align 8
  %70 = getelementptr inbounds nuw i8, ptr %60, i64 152
  %71 = load i16, ptr %70, align 8
  %72 = getelementptr inbounds nuw i8, ptr %60, i64 208
  %73 = load ptr, ptr %72, align 8
  %74 = call i32 @_do_stat(ptr noundef nonnull %61, ptr noundef %63, i32 noundef %65, i32 noundef %67, i32 noundef %69, i16 noundef zeroext %71, ptr noundef %73)
  %.pre46 = load ptr, ptr %4, align 8
  br label %75

75:                                               ; preds = %45, %52, %._crit_edge44
  %76 = phi ptr [ %.pre47, %52 ], [ %.pre46, %._crit_edge44 ], [ %42, %45 ]
  %indvars.iv.next = add nuw nsw i64 %indvars.iv, 1
  %77 = getelementptr inbounds nuw i8, ptr %76, i64 8
  %78 = load i32, ptr %77, align 8
  %79 = zext i32 %78 to i64
  %80 = icmp samesign ult i64 %indvars.iv.next, %79
  br i1 %80, label %.lr.ph, label %.loopexit, !llvm.loop !15

.loopexit:                                        ; preds = %75, %36, %40, %25
  call void @llvm.lifetime.end.p0(i64 8, ptr nonnull %4) #5
  %81 = call ptr @list_next(ptr noundef %15) #5
  %.not27 = icmp eq ptr %81, null
  br i1 %.not27, label %._crit_edge, label %19

._crit_edge:                                      ; preds = %.loopexit, %12
  call void @list_iterator_destroy(ptr noundef %15) #5
  call void @slurm_xfree(ptr noundef nonnull getelementptr inbounds nuw (i8, ptr @params, i64 8)) #5
  %82 = load ptr, ptr getelementptr inbounds nuw (i8, ptr @params, i64 24), align 8
  %.not28 = icmp eq ptr %82, null
  br i1 %.not28, label %84, label %83

83:                                               ; preds = %._crit_edge
  call void @list_destroy(ptr noundef nonnull %82) #5
  br label %84

84:                                               ; preds = %83, %._crit_edge
  store ptr null, ptr getelementptr inbounds nuw (i8, ptr @params, i64 24), align 8
  %85 = load ptr, ptr @print_fields_itr, align 8
  %.not29 = icmp eq ptr %85, null
  br i1 %.not29, label %87, label %86

86:                                               ; preds = %84
  call void @list_iterator_destroy(ptr noundef nonnull %85) #5
  br label %87

87:                                               ; preds = %84, %86
  %88 = load ptr, ptr @print_fields_list, align 8
  %.not30 = icmp eq ptr %88, null
  br i1 %.not30, label %90, label %89

89:                                               ; preds = %87
  call void @list_destroy(ptr noundef nonnull %88) #5
  br label %90

90:                                               ; preds = %89, %87
  store ptr null, ptr @print_fields_list, align 8
  br label %91

91:                                               ; preds = %90, %10
  %.020 = phi i32 [ 0, %90 ], [ 1, %10 ]
  call void @llvm.lifetime.end.p0(i64 24, ptr nonnull %3) #5
  ret i32 %.020
}